target datalayout = "e-m:e-p270:32:32-p271:32:32-p272:64:64-i64:64-i128:128-f80:128-n8:16:32:64-S128"
target triple = "x86_64-pc-linux-gnu"

@.str.5 = private unnamed_addr constant [27 x i8] c"../openssl/test/rsa_test.c\00", align 1
@__const.test_EVP_rsa_legacy_key.e_data = private unnamed_addr constant [3 x i8] c"\01\00\01", align 1
@.str.30 = private unnamed_addr constant [46 x i8] c"(p = BN_bin2bn(p_data, sizeof(p_data), NULL))\00", align 1
@.str.31 = private unnamed_addr constant [46 x i8] c"(q = BN_bin2bn(q_data, sizeof(q_data), NULL))\00", align 1
@.str.32 = private unnamed_addr constant [46 x i8] c"(n = BN_bin2bn(n_data, sizeof(n_data), NULL))\00", align 1
@.str.33 = private unnamed_addr constant [46 x i8] c"(d = BN_bin2bn(d_data, sizeof(d_data), NULL))\00", align 1
@.str.34 = private unnamed_addr constant [46 x i8] c"(e = BN_bin2bn(e_data, sizeof(e_data), NULL))\00", align 1
@.str.35 = private unnamed_addr constant [18 x i8] c"(rsa = RSA_new())\00", align 1
@.str.36 = private unnamed_addr constant [20 x i8] c"(md = EVP_sha256())\00", align 1
@.str.37 = private unnamed_addr constant [25 x i8] c"(ctx = EVP_MD_CTX_new())\00", align 1
@.str.38 = private unnamed_addr constant [24 x i8] c"(pkey = EVP_PKEY_new())\00", align 1
@.str.39 = private unnamed_addr constant [28 x i8] c"RSA_set0_factors(rsa, p, q)\00", align 1
@.str.40 = private unnamed_addr constant [27 x i8] c"RSA_set0_key(rsa, n, e, d)\00", align 1
@.str.41 = private unnamed_addr constant [31 x i8] c"EVP_PKEY_assign_RSA(pkey, rsa)\00", align 1
@.str.42 = private unnamed_addr constant [46 x i8] c"EVP_DigestSignInit(ctx, NULL, md, NULL, pkey)\00", align 1
@.str.43 = private unnamed_addr constant [53 x i8] c"EVP_DigestSign(ctx, sigbuf, &buflen, msgbuf, msglen)\00", align 1

; Function Attrs: nounwind uwtable
define internal i32 @test_EVP_rsa_legacy_key() #0 {
  %1 = alloca i32, align 4
  %2 = alloca i64, align 8
  %3 = alloca i64, align 8
  %4 = alloca [384 x i8], align 16
  %5 = alloca [64 x i8], align 16
  %6 = alloca ptr, align 8
  %7 = alloca ptr, align 8
  %8 = alloca ptr, align 8
  %9 = alloca ptr, align 8
  %10 = alloca ptr, align 8
  %11 = alloca ptr, align 8
  %12 = alloca ptr, align 8
  %13 = alloca ptr, align 8
  %14 = alloca ptr, align 8
  %15 = alloca [257 x i8], align 16
  %16 = alloca [3 x i8], align 1
  %17 = alloca [256 x i8], align 16
  %18 = alloca [129 x i8], align 16
  %19 = alloca [129 x i8], align 16
  call void @llvm.lifetime.start.p0(i64 4, ptr %1) #5
  call void @llvm.lifetime.start.p0(i64 8, ptr %2) #5
  store i64 384, ptr %2, align 8, !tbaa !18
  call void @llvm.lifetime.start.p0(i64 8, ptr %3) #5
  store i64 64, ptr %3, align 8, !tbaa !18
  call void @llvm.lifetime.start.p0(i64 384, ptr %4) #5
  call void @llvm.lifetime.start.p0(i64 64, ptr %5) #5
  call void @llvm.lifetime.start.p0(i64 8, ptr %6) #5
  call void @llvm.lifetime.start.p0(i64 8, ptr %7) #5
  call void @llvm.lifetime.start.p0(i64 8, ptr %8) #5
  call void @llvm.lifetime.start.p0(i64 8, ptr %9) #5
  call void @llvm.lifetime.start.p0(i64 8, ptr %10) #5
  call void @llvm.lifetime.start.p0(i64 8, ptr %11) #5
  call void @llvm.lifetime.start.p0(i64 8, ptr %12) #5
  call void @llvm.lifetime.start.p0(i64 8, ptr %13) #5
  store ptr null, ptr %13, align 8, !tbaa !20
  call void @llvm.lifetime.start.p0(i64 8, ptr %14) #5
  store ptr null, ptr %14, align 8, !tbaa !22
  call void @llvm.lifetime.start.p0(i64 257, ptr %15) #5
  call void @llvm.memcpy.p0.p0.i64(ptr align 16 %15, ptr align 16 @__const.test_EVP_rsa_legacy_key.n_data, i64 257, i1 false)
  call void @llvm.lifetime.start.p0(i64 3, ptr %16) #5
  call void @llvm.memcpy.p0.p0.i64(ptr align 1 %16, ptr align 1 @__const.test_EVP_rsa_legacy_key.e_data, i64 3, i1 false)
  call void @llvm.lifetime.start.p0(i64 256, ptr %17) #5
  call void @llvm.memcpy.p0.p0.i64(ptr align 16 %17, ptr align 16 @__const.test_EVP_rsa_legacy_key.d_data, i64 256, i1 false)
  call void @llvm.lifetime.start.p0(i64 129, ptr %18) #5
  call void @llvm.memcpy.p0.p0.i64(ptr align 16 %18, ptr align 16 @__const.test_EVP_rsa_legacy_key.p_data, i64 129, i1 false)
  call void @llvm.lifetime.start.p0(i64 129, ptr %19) #5
  call void @llvm.memcpy.p0.p0.i64(ptr align 16 %19, ptr align 16 @__const.test_EVP_rsa_legacy_key.q_data, i64 129, i1 false)
  %20 = getelementptr inbounds [64 x i8], ptr %5, i64 0, i64 0
  call void @llvm.memset.p0.i64(ptr align 16 %20, i8 -17, i64 64, i1 false)
  %21 = getelementptr inbounds [129 x i8], ptr %18, i64 0, i64 0
  %22 = call ptr @BN_bin2bn(ptr noundef %21, i32 noundef 129, ptr noundef null)
  store ptr %22, ptr %6, align 8, !tbaa !24
  %23 = call i32 @test_ptr(ptr noundef @.str.5, i32 noundef 489, ptr noundef @.str.30, ptr noundef %22)
  %24 = icmp ne i32 %23, 0
  br i1 %24, label %25, label %107

25:                                               ; preds = %0
  %26 = getelementptr inbounds [129 x i8], ptr %19, i64 0, i64 0
  %27 = call ptr @BN_bin2bn(ptr noundef %26, i32 noundef 129, ptr noundef null)
  store ptr %27, ptr %7, align 8, !tbaa !24
  %28 = call i32 @test_ptr(ptr noundef @.str.5, i32 noundef 490, ptr noundef @.str.31, ptr noundef %27)
  %29 = icmp ne i32 %28, 0
  br i1 %29, label %30, label %107

30:                                               ; preds = %25
  %31 = getelementptr inbounds [257 x i8], ptr %15, i64 0, i64 0
  %32 = call ptr @BN_bin2bn(ptr noundef %31, i32 noundef 257, ptr noundef null)
  store ptr %32, ptr %8, align 8, !tbaa !24
  %33 = call i32 @test_ptr(ptr noundef @.str.5, i32 noundef 491, ptr noundef @.str.32, ptr noundef %32)
  %34 = icmp ne i32 %33, 0
  br i1 %34, label %35, label %107

35:                                               ; preds = %30
  %36 = getelementptr inbounds [256 x i8], ptr %17, i64 0, i64 0
  %37 = call ptr @BN_bin2bn(ptr noundef %36, i32 noundef 256, ptr noundef null)
  store ptr %37, ptr %9, align 8, !tbaa !24
  %38 = call i32 @test_ptr(ptr noundef @.str.5, i32 noundef 492, ptr noundef @.str.33, ptr noundef %37)
  %39 = icmp ne i32 %38, 0
  br i1 %39, label %40, label %107

40:                                               ; preds = %35
  %41 = getelementptr inbounds [3 x i8], ptr %16, i64 0, i64 0
  %42 = call ptr @BN_bin2bn(ptr noundef %41, i32 noundef 3, ptr noundef null)
  store ptr %42, ptr %10, align 8, !tbaa !24
  %43 = call i32 @test_ptr(ptr noundef @.str.5, i32 noundef 493, ptr noundef @.str.34, ptr noundef %42)
  %44 = icmp ne i32 %43, 0
  br i1 %44, label %45, label %107

45:                                               ; preds = %40
  %46 = call ptr @RSA_new()
  store ptr %46, ptr %11, align 8, !tbaa !8
  %47 = call i32 @test_ptr(ptr noundef @.str.5, i32 noundef 494, ptr noundef @.str.35, ptr noundef %46)
  %48 = icmp ne i32 %47, 0
  br i1 %48, label %49, label %107

49:                                               ; preds = %45
  %50 = call ptr @EVP_sha256()
  store ptr %50, ptr %12, align 8, !tbaa !26
  %51 = call i32 @test_ptr(ptr noundef @.str.5, i32 noundef 495, ptr noundef @.str.36, ptr noundef %50)
  %52 = icmp ne i32 %51, 0
  br i1 %52, label %53, label %107

53:                                               ; preds = %49
  %54 = call ptr @EVP_MD_CTX_new()
  store ptr %54, ptr %13, align 8, !tbaa !20
  %55 = call i32 @test_ptr(ptr noundef @.str.5, i32 noundef 496, ptr noundef @.str.37, ptr noundef %54)
  %56 = icmp ne i32 %55, 0
  br i1 %56, label %57, label %107

57:                                               ; preds = %53
  %58 = call ptr @EVP_PKEY_new()
  store ptr %58, ptr %14, align 8, !tbaa !22
  %59 = call i32 @test_ptr(ptr noundef @.str.5, i32 noundef 497, ptr noundef @.str.38, ptr noundef %58)
  %60 = icmp ne i32 %59, 0
  br i1 %60, label %61, label %107

61:                                               ; preds = %57
  %62 = load ptr, ptr %11, align 8, !tbaa !8
  %63 = load ptr, ptr %6, align 8, !tbaa !24
  %64 = load ptr, ptr %7, align 8, !tbaa !24
  %65 = call i32 @RSA_set0_factors(ptr noundef %62, ptr noundef %63, ptr noundef %64)
  %66 = icmp ne i32 %65, 0
  %67 = zext i1 %66 to i32
  %68 = call i32 @test_true(ptr noundef @.str.5, i32 noundef 498, ptr noundef @.str.39, i32 noundef %67)
  %69 = icmp ne i32 %68, 0
  br i1 %69, label %70, label %107

70:                                               ; preds = %61
  %71 = load ptr, ptr %11, align 8, !tbaa !8
  %72 = load ptr, ptr %8, align 8, !tbaa !24
  %73 = load ptr, ptr %10, align 8, !tbaa !24
  %74 = load ptr, ptr %9, align 8, !tbaa !24
  %75 = call i32 @RSA_set0_key(ptr noundef %71, ptr noundef %72, ptr noundef %73, ptr noundef %74)
  %76 = icmp ne i32 %75, 0
  %77 = zext i1 %76 to i32
  %78 = call i32 @test_true(ptr noundef @.str.5, i32 noundef 499, ptr noundef @.str.40, i32 noundef %77)
  %79 = icmp ne i32 %78, 0
  br i1 %79, label %80, label %107

80:                                               ; preds = %70
  %81 = load ptr, ptr %14, align 8, !tbaa !22
  %82 = load ptr, ptr %11, align 8, !tbaa !8
  %83 = call i32 @EVP_PKEY_assign(ptr noundef %81, i32 noundef 6, ptr noundef %82)
  %84 = icmp ne i32 %83, 0
  %85 = zext i1 %84 to i32
  %86 = call i32 @test_true(ptr noundef @.str.5, i32 noundef 500, ptr noundef @.str.41, i32 noundef %85)
  %87 = icmp ne i32 %86, 0
  br i1 %87, label %88, label %107

88:                                               ; preds = %80
  %89 = load ptr, ptr %13, align 8, !tbaa !20
  %90 = load ptr, ptr %12, align 8, !tbaa !26
  %91 = load ptr, ptr %14, align 8, !tbaa !22
  %92 = call i32 @EVP_DigestSignInit(ptr noundef %89, ptr noundef null, ptr noundef %90, ptr noundef null, ptr noundef %91)
  %93 = icmp ne i32 %92, 0
  %94 = zext i1 %93 to i32
  %95 = call i32 @test_true(ptr noundef @.str.5, i32 noundef 501, ptr noundef @.str.42, i32 noundef %94)
  %96 = icmp ne i32 %95, 0
  br i1 %96, label %97, label %107

97:                                               ; preds = %88
  %98 = load ptr, ptr %13, align 8, !tbaa !20
  %99 = getelementptr inbounds [384 x i8], ptr %4, i64 0, i64 0
  %100 = getelementptr inbounds [64 x i8], ptr %5, i64 0, i64 0
  %101 = load i64, ptr %3, align 8, !tbaa !18
  %102 = call i32 @EVP_DigestSign(ptr noundef %98, ptr noundef %99, ptr noundef %2, ptr noundef %100, i64 noundef %101)
  %103 = icmp ne i32 %102, 0
  %104 = zext i1 %103 to i32
  %105 = call i32 @test_true(ptr noundef @.str.5, i32 noundef 502, ptr noundef @.str.43, i32 noundef %104)
  %106 = icmp ne i32 %105, 0
  br label %107

107:                                              ; preds = %97, %88, %80, %70, %61, %57, %53, %49, %45, %40, %35, %30, %25, %0
  %108 = phi i1 [ false, %88 ], [ false, %80 ], [ false, %70 ], [ false, %61 ], [ false, %57 ], [ false, %53 ], [ false, %49 ], [ false, %45 ], [ false, %40 ], [ false, %35 ], [ false, %30 ], [ false, %25 ], [ false, %0 ], [ %106, %97 ]
  %109 = zext i1 %108 to i32
  store i32 %109, ptr %1, align 4, !tbaa !4
  %110 = load ptr, ptr %13, align 8, !tbaa !20
  call void @EVP_MD_CTX_free(ptr noundef %110)
  %111 = load ptr, ptr %14, align 8, !tbaa !22
  call void @EVP_PKEY_free(ptr noundef %111)
  %112 = load i32, ptr %1, align 4, !tbaa !4
  call void @llvm.lifetime.end.p0(i64 129, ptr %19) #5
  call void @llvm.lifetime.end.p0(i64 129, ptr %18) #5
  call void @llvm.lifetime.end.p0(i64 256, ptr %17) #5
  call void @llvm.lifetime.end.p0(i64 3, ptr %16) #5
  call void @llvm.lifetime.end.p0(i64 257, ptr %15) #5
  call void @llvm.lifetime.end.p0(i64 8, ptr %14) #5
  call void @llvm.lifetime.end.p0(i64 8, ptr %13) #5
  call void @llvm.lifetime.end.p0(i64 8, ptr %12) #5
  call void @llvm.lifetime.end.p0(i64 8, ptr %11) #5
  call void @llvm.lifetime.end.p0(i64 8, ptr %10) #5
  call void @llvm.lifetime.end.p0(i64 8, ptr %9) #5
  call void @llvm.lifetime.end.p0(i64 8, ptr %8) #5
  call void @llvm.lifetime.end.p0(i64 8, ptr %7) #5
  call void @llvm.lifetime.end.p0(i64 8, ptr %6) #5
  call void @llvm.lifetime.end.p0(i64 64, ptr %5) #5
  call void @llvm.lifetime.end.p0(i64 384, ptr %4) #5
  call void @llvm.lifetime.end.p0(i64 8, ptr %3) #5
  call void @llvm.lifetime.end.p0(i64 8, ptr %2) #5
  call void @llvm.lifetime.end.p0(i64 4, ptr %1) #5
  ret i32 %112
}