; Function Attrs: nounwind uwtable
define internal range(i32 0, 2) i32 @test_EVP_rsa_legacy_key() #0 {
  %1 = alloca i64, align 8
  %2 = alloca [384 x i8], align 16
  %3 = alloca [64 x i8], align 16
  %4 = alloca [257 x i8], align 16
  %5 = alloca [3 x i8], align 1
  %6 = alloca [256 x i8], align 16
  %7 = alloca [129 x i8], align 16
  %8 = alloca [129 x i8], align 16
  call void @llvm.lifetime.start.p0(i64 8, ptr nonnull %1) #5
  store i64 384, ptr %1, align 8, !tbaa !18
  call void @llvm.lifetime.start.p0(i64 384, ptr nonnull %2) #5
  call void @llvm.lifetime.start.p0(i64 64, ptr nonnull %3) #5
  call void @llvm.lifetime.start.p0(i64 257, ptr nonnull %4) #5
  call void @llvm.memcpy.p0.p0.i64(ptr noundef nonnull align 16 dereferenceable(257) %4, ptr noundef nonnull align 16 dereferenceable(257) @__const.test_EVP_rsa_legacy_key.n_data, i64 257, i1 false)
  call void @llvm.lifetime.start.p0(i64 3, ptr nonnull %5) #5
  call void @llvm.memcpy.p0.p0.i64(ptr noundef nonnull align 1 dereferenceable(3) %5, ptr noundef nonnull align 1 dereferenceable(3) @__const.test_EVP_rsa_legacy_key.e_data, i64 3, i1 false)
  call void @llvm.lifetime.start.p0(i64 256, ptr nonnull %6) #5
  call void @llvm.memcpy.p0.p0.i64(ptr noundef nonnull align 16 dereferenceable(256) %6, ptr noundef nonnull align 16 dereferenceable(256) @__const.test_EVP_rsa_legacy_key.d_data, i64 256, i1 false)
  call void @llvm.lifetime.start.p0(i64 129, ptr nonnull %7) #5
  call void @llvm.memcpy.p0.p0.i64(ptr noundef nonnull align 16 dereferenceable(129) %7, ptr noundef nonnull align 16 dereferenceable(129) @__const.test_EVP_rsa_legacy_key.p_data, i64 129, i1 false)
  call void @llvm.lifetime.start.p0(i64 129, ptr nonnull %8) #5
  call void @llvm.memcpy.p0.p0.i64(ptr noundef nonnull align 16 dereferenceable(129) %8, ptr noundef nonnull align 16 dereferenceable(129) @__const.test_EVP_rsa_legacy_key.q_data, i64 129, i1 false)
  call void @llvm.memset.p0.i64(ptr noundef nonnull align 16 dereferenceable(64) %3, i8 -17, i64 64, i1 false)
  %9 = call ptr @BN_bin2bn(ptr noundef nonnull %7, i32 noundef 129, ptr noundef null) #5
  %10 = call i32 @test_ptr(ptr noundef nonnull @.str.5, i32 noundef 489, ptr noundef nonnull @.str.30, ptr noundef %9) #5
  %.not = icmp eq i32 %10, 0
  br i1 %.not, label %62, label %11

11:                                               ; preds = %0
  %12 = call ptr @BN_bin2bn(ptr noundef nonnull %8, i32 noundef 129, ptr noundef null) #5
  %13 = call i32 @test_ptr(ptr noundef nonnull @.str.5, i32 noundef 490, ptr noundef nonnull @.str.31, ptr noundef %12) #5
  %.not17 = icmp eq i32 %13, 0
  br i1 %.not17, label %62, label %14

14:                                               ; preds = %11
  %15 = call ptr @BN_bin2bn(ptr noundef nonnull %4, i32 noundef 257, ptr noundef null) #5
  %16 = call i32 @test_ptr(ptr noundef nonnull @.str.5, i32 noundef 491, ptr noundef nonnull @.str.32, ptr noundef %15) #5
  %.not18 = icmp eq i32 %16, 0
  br i1 %.not18, label %62, label %17

17:                                               ; preds = %14
  %18 = call ptr @BN_bin2bn(ptr noundef nonnull %6, i32 noundef 256, ptr noundef null) #5
  %19 = call i32 @test_ptr(ptr noundef nonnull @.str.5, i32 noundef 492, ptr noundef nonnull @.str.33, ptr noundef %18) #5
  %.not19 = icmp eq i32 %19, 0
  br i1 %.not19, label %62, label %20

20:                                               ; preds = %17
  %21 = call ptr @BN_bin2bn(ptr noundef nonnull %5, i32 noundef 3, ptr noundef null) #5
  %22 = call i32 @test_ptr(ptr noundef nonnull @.str.5, i32 noundef 493, ptr noundef nonnull @.str.34, ptr noundef %21) #5
  %.not20 = icmp eq i32 %22, 0
  br i1 %.not20, label %62, label %23

23:                                               ; preds = %20
  %24 = call ptr @RSA_new() #5
  %25 = call i32 @test_ptr(ptr noundef nonnull @.str.5, i32 noundef 494, ptr noundef nonnull @.str.35, ptr noundef %24) #5
  %.not21 = icmp eq i32 %25, 0
  br i1 %.not21, label %62, label %26

26:                                               ; preds = %23
  %27 = call ptr @EVP_sha256() #5
  %28 = call i32 @test_ptr(ptr noundef nonnull @.str.5, i32 noundef 495, ptr noundef nonnull @.str.36, ptr noundef %27) #5
  %.not22 = icmp eq i32 %28, 0
  br i1 %.not22, label %62, label %29

29:                                               ; preds = %26
  %30 = call ptr @EVP_MD_CTX_new() #5
  %31 = call i32 @test_ptr(ptr noundef nonnull @.str.5, i32 noundef 496, ptr noundef nonnull @.str.37, ptr noundef %30) #5
  %.not23 = icmp eq i32 %31, 0
  br i1 %.not23, label %62, label %32

32:                                               ; preds = %29
  %33 = call ptr @EVP_PKEY_new() #5
  %34 = call i32 @test_ptr(ptr noundef nonnull @.str.5, i32 noundef 497, ptr noundef nonnull @.str.38, ptr noundef %33) #5
  %.not24 = icmp eq i32 %34, 0
  br i1 %.not24, label %62, label %35

35:                                               ; preds = %32
  %36 = call i32 @RSA_set0_factors(ptr noundef %24, ptr noundef %9, ptr noundef %12) #5
  %37 = icmp ne i32 %36, 0
  %38 = zext i1 %37 to i32
  %39 = call i32 @test_true(ptr noundef nonnull @.str.5, i32 noundef 498, ptr noundef nonnull @.str.39, i32 noundef %38) #5
  %.not25 = icmp eq i32 %39, 0
  br i1 %.not25, label %62, label %40

40:                                               ; preds = %35
  %41 = call i32 @RSA_set0_key(ptr noundef %24, ptr noundef %15, ptr noundef %21, ptr noundef %18) #5
  %42 = icmp ne i32 %41, 0
  %43 = zext i1 %42 to i32
  %44 = call i32 @test_true(ptr noundef nonnull @.str.5, i32 noundef 499, ptr noundef nonnull @.str.40, i32 noundef %43) #5
  %.not26 = icmp eq i32 %44, 0
  br i1 %.not26, label %62, label %45

45:                                               ; preds = %40
  %46 = call i32 @EVP_PKEY_assign(ptr noundef %33, i32 noundef 6, ptr noundef %24) #5
  %47 = icmp ne i32 %46, 0
  %48 = zext i1 %47 to i32
  %49 = call i32 @test_true(ptr noundef nonnull @.str.5, i32 noundef 500, ptr noundef nonnull @.str.41, i32 noundef %48) #5
  %.not27 = icmp eq i32 %49, 0
  br i1 %.not27, label %62, label %50

50:                                               ; preds = %45
  %51 = call i32 @EVP_DigestSignInit(ptr noundef %30, ptr noundef null, ptr noundef %27, ptr noundef null, ptr noundef %33) #5
  %52 = icmp ne i32 %51, 0
  %53 = zext i1 %52 to i32
  %54 = call i32 @test_true(ptr noundef nonnull @.str.5, i32 noundef 501, ptr noundef nonnull @.str.42, i32 noundef %53) #5
  %.not28 = icmp eq i32 %54, 0
  br i1 %.not28, label %62, label %55

55:                                               ; preds = %50
  %56 = call i32 @EVP_DigestSign(ptr noundef %30, ptr noundef nonnull %2, ptr noundef nonnull %1, ptr noundef nonnull %3, i64 noundef 64) #5
  %57 = icmp ne i32 %56, 0
  %58 = zext i1 %57 to i32
  %59 = call i32 @test_true(ptr noundef nonnull @.str.5, i32 noundef 502, ptr noundef nonnull @.str.43, i32 noundef %58) #5
  %60 = icmp ne i32 %59, 0
  %61 = zext i1 %60 to i32
  br label %62

62:                                               ; preds = %55, %50, %45, %40, %35, %32, %29, %26, %23, %20, %17, %14, %11, %0
  %.016 = phi ptr [ %30, %55 ], [ %30, %50 ], [ %30, %45 ], [ %30, %40 ], [ %30, %35 ], [ %30, %32 ], [ %30, %29 ], [ null, %26 ], [ null, %23 ], [ null, %20 ], [ null, %17 ], [ null, %14 ], [ null, %11 ], [ null, %0 ]
  %.0 = phi ptr [ %33, %55 ], [ %33, %50 ], [ %33, %45 ], [ %33, %40 ], [ %33, %35 ], [ %33, %32 ], [ null, %29 ], [ null, %26 ], [ null, %23 ], [ null, %20 ], [ null, %17 ], [ null, %14 ], [ null, %11 ], [ null, %0 ]
  %63 = phi i32 [ %61, %55 ], [ 0, %50 ], [ 0, %45 ], [ 0, %40 ], [ 0, %35 ], [ 0, %32 ], [ 0, %29 ], [ 0, %26 ], [ 0, %23 ], [ 0, %20 ], [ 0, %17 ], [ 0, %14 ], [ 0, %11 ], [ 0, %0 ]
  call void @EVP_MD_CTX_free(ptr noundef %.016) #5
  call void @EVP_PKEY_free(ptr noundef %.0) #5
  call void @llvm.lifetime.end.p0(i64 129, ptr nonnull %8) #5
  call void @llvm.lifetime.end.p0(i64 129, ptr nonnull %7) #5
  call void @llvm.lifetime.end.p0(i64 256, ptr nonnull %6) #5
  call void @llvm.lifetime.end.p0(i64 3, ptr nonnull %5) #5
  call void @llvm.lifetime.end.p0(i64 257, ptr nonnull %4) #5
  call void @llvm.lifetime.end.p0(i64 64, ptr nonnull %3) #5
  call void @llvm.lifetime.end.p0(i64 384, ptr nonnull %2) #5
  call void @llvm.lifetime.end.p0(i64 8, ptr nonnull %1) #5
  ret i32 %63
}